target datalayout = "e-m:e-p270:32:32-p271:32:32-p272:64:64-i64:64-i128:128-f80:128-n8:16:32:64-S128"
target triple = "x86_64-pc-linux-gnu"

%struct.dumper_t = type { i32 }
%struct.wtap_dumper = type { ptr, i32, i32, i32, i32, i8, i64, ptr, ptr, ptr, ptr, ptr, ptr, ptr, ptr, ptr, ptr, ptr, ptr, ptr, i32, i32, i32 }

; Function Attrs: null_pointer_is_valid sspstrong uwtable
define internal zeroext i1 @logcat_text_dump_open(ptr noundef %0, i32 noundef %1) #0 {
  %3 = alloca ptr, align 8
  %4 = alloca i32, align 4
  %5 = alloca ptr, align 8
  %6 = alloca i64, align 8
  %7 = alloca i64, align 8
  %8 = alloca ptr, align 8
  %9 = alloca ptr, align 8
  store ptr %0, ptr %3, align 8
  store i32 %1, ptr %4, align 4
  call void @llvm.lifetime.start.p0(i64 8, ptr %5) #12
  call void @llvm.lifetime.start.p0(i64 8, ptr %6) #12
  store i64 1, ptr %6, align 8
  call void @llvm.lifetime.start.p0(i64 8, ptr %7) #12
  store i64 4, ptr %7, align 8
  call void @llvm.lifetime.start.p0(i64 8, ptr %8) #12
  %10 = load i64, ptr %7, align 8
  %11 = icmp eq i64 %10, 1
  br i1 %11, label %12, label %15

12:                                               ; preds = %2
  %13 = load i64, ptr %6, align 8
  %14 = call noalias ptr @g_malloc(i64 noundef %13) #13
  store ptr %14, ptr %8, align 8
  br label %36

15:                                               ; preds = %2
  %16 = load i64, ptr %6, align 8
  %17 = call i1 @llvm.is.constant.i64(i64 %16)
  br i1 %17, label %18, label %31

18:                                               ; preds = %15
  %19 = load i64, ptr %7, align 8
  %20 = icmp eq i64 %19, 0
  br i1 %20, label %26, label %21

21:                                               ; preds = %18
  %22 = load i64, ptr %6, align 8
  %23 = load i64, ptr %7, align 8
  %24 = udiv i64 -1, %23
  %25 = icmp ule i64 %22, %24
  br i1 %25, label %26, label %31

26:                                               ; preds = %21, %18
  %27 = load i64, ptr %6, align 8
  %28 = load i64, ptr %7, align 8
  %29 = mul i64 %27, %28
  %30 = call noalias ptr @g_malloc(i64 noundef %29) #13
  store ptr %30, ptr %8, align 8
  br label %35

31:                                               ; preds = %21, %15
  %32 = load i64, ptr %6, align 8
  %33 = load i64, ptr %7, align 8
  %34 = call noalias ptr @g_malloc_n(i64 noundef %32, i64 noundef %33) #15
  store ptr %34, ptr %8, align 8
  br label %35

35:                                               ; preds = %31, %26
  br label %36

36:                                               ; preds = %35, %12
  %37 = load ptr, ptr %8, align 8
  store ptr %37, ptr %9, align 8
  call void @llvm.lifetime.end.p0(i64 8, ptr %8) #12
  call void @llvm.lifetime.end.p0(i64 8, ptr %7) #12
  call void @llvm.lifetime.end.p0(i64 8, ptr %6) #12
  %38 = load ptr, ptr %9, align 8
  store ptr %38, ptr %5, align 8
  %39 = load i32, ptr %4, align 4
  %40 = load ptr, ptr %5, align 8
  %41 = getelementptr inbounds nuw %struct.dumper_t, ptr %40, i32 0, i32 0
  store i32 %39, ptr %41, align 4
  %42 = load ptr, ptr %5, align 8
  %43 = load ptr, ptr %3, align 8
  %44 = getelementptr inbounds nuw %struct.wtap_dumper, ptr %43, i32 0, i32 7
  store ptr %42, ptr %44, align 8
  %45 = load ptr, ptr %3, align 8
  %46 = getelementptr inbounds nuw %struct.wtap_dumper, ptr %45, i32 0, i32 10
  store ptr @logcat_text_dump_text, ptr %46, align 8
  call void @llvm.lifetime.end.p0(i64 8, ptr %5) #12
  ret i1 true
}

; Function Attrs: null_pointer_is_valid sspstrong uwtable
define internal zeroext i1 @logcat_text_long_dump_open(ptr noundef %0, ptr noundef %1, ptr noundef %2) #0 {
  %4 = alloca ptr, align 8
  %5 = alloca ptr, align 8
  %6 = alloca ptr, align 8
  store ptr %0, ptr %4, align 8
  store ptr %1, ptr %5, align 8
  store ptr %2, ptr %6, align 8
  %7 = load ptr, ptr %4, align 8
  %8 = call zeroext i1 @logcat_text_dump_open(ptr noundef %7, i32 noundef 170)
  ret i1 %8
}